target datalayout = "e-m:e-p270:32:32-p271:32:32-p272:64:64-i64:64-i128:128-f80:128-n8:16:32:64-S128"
target triple = "x86_64-pc-linux-gnu"

%struct.GetBitContext = type { ptr, ptr, i32, i32, i32 }

@.str.45 = private unnamed_addr constant [35 x i8] c"Marker bit missing at %d of %d %s\0A\00", align 1

; Function Attrs: inlinehint nounwind uwtable
define internal i32 @get_bits_count(ptr noundef %0) #4 {
  %2 = alloca ptr, align 8
  store ptr %0, ptr %2, align 8, !tbaa !79
  %3 = load ptr, ptr %2, align 8, !tbaa !79
  %4 = getelementptr inbounds nuw %struct.GetBitContext, ptr %3, i32 0, i32 2
  %5 = load i32, ptr %4, align 8, !tbaa !81
  ret i32 %5
}

; Function Attrs: inlinehint nounwind uwtable
define internal i32 @get_bits1(ptr noundef %0) #4 {
  %2 = alloca ptr, align 8
  %3 = alloca i32, align 4
  %4 = alloca i8, align 1
  store ptr %0, ptr %2, align 8, !tbaa !79
  call void @llvm.lifetime.start.p0(i64 4, ptr %3) #10
  %5 = load ptr, ptr %2, align 8, !tbaa !79
  %6 = getelementptr inbounds nuw %struct.GetBitContext, ptr %5, i32 0, i32 2
  %7 = load i32, ptr %6, align 8, !tbaa !81
  store i32 %7, ptr %3, align 4, !tbaa !67
  call void @llvm.lifetime.start.p0(i64 1, ptr %4) #10
  %8 = load ptr, ptr %2, align 8, !tbaa !79
  %9 = getelementptr inbounds nuw %struct.GetBitContext, ptr %8, i32 0, i32 0
  %10 = load ptr, ptr %9, align 8, !tbaa !82
  %11 = load i32, ptr %3, align 4, !tbaa !67
  %12 = lshr i32 %11, 3
  %13 = zext i32 %12 to i64
  %14 = getelementptr inbounds nuw i8, ptr %10, i64 %13
  %15 = load i8, ptr %14, align 1, !tbaa !75
  store i8 %15, ptr %4, align 1, !tbaa !75
  %16 = load i32, ptr %3, align 4, !tbaa !67
  %17 = and i32 %16, 7
  %18 = load i8, ptr %4, align 1, !tbaa !75
  %19 = zext i8 %18 to i32
  %20 = shl i32 %19, %17
  %21 = trunc i32 %20 to i8
  store i8 %21, ptr %4, align 1, !tbaa !75
  %22 = load i8, ptr %4, align 1, !tbaa !75
  %23 = zext i8 %22 to i32
  %24 = ashr i32 %23, 7
  %25 = trunc i32 %24 to i8
  store i8 %25, ptr %4, align 1, !tbaa !75
  %26 = load i32, ptr %3, align 4, !tbaa !67
  %27 = add i32 %26, 1
  store i32 %27, ptr %3, align 4, !tbaa !67
  %28 = load i32, ptr %3, align 4, !tbaa !67
  %29 = load ptr, ptr %2, align 8, !tbaa !79
  %30 = getelementptr inbounds nuw %struct.GetBitContext, ptr %29, i32 0, i32 2
  store i32 %28, ptr %30, align 8, !tbaa !81
  %31 = load i8, ptr %4, align 1, !tbaa !75
  %32 = zext i8 %31 to i32
  call void @llvm.lifetime.end.p0(i64 1, ptr %4) #10
  call void @llvm.lifetime.end.p0(i64 4, ptr %3) #10
  ret i32 %32
}

; Function Attrs: inlinehint nounwind uwtable
define internal i32 @check_marker(ptr noundef %0, ptr noundef %1, ptr noundef %2) #4 {
  %4 = alloca ptr, align 8
  %5 = alloca ptr, align 8
  %6 = alloca ptr, align 8
  %7 = alloca i32, align 4
  store ptr %0, ptr %4, align 8, !tbaa !173
  store ptr %1, ptr %5, align 8, !tbaa !79
  store ptr %2, ptr %6, align 8, !tbaa !88
  call void @llvm.lifetime.start.p0(i64 4, ptr %7) #10
  %8 = load ptr, ptr %5, align 8, !tbaa !79
  %9 = call i32 @get_bits1(ptr noundef %8)
  store i32 %9, ptr %7, align 4, !tbaa !67
  %10 = load i32, ptr %7, align 4, !tbaa !67
  %11 = icmp ne i32 %10, 0
  br i1 %11, label %21, label %12

12:                                               ; preds = %3
  %13 = load ptr, ptr %4, align 8, !tbaa !173
  %14 = load ptr, ptr %5, align 8, !tbaa !79
  %15 = call i32 @get_bits_count(ptr noundef %14)
  %16 = sub nsw i32 %15, 1
  %17 = load ptr, ptr %5, align 8, !tbaa !79
  %18 = getelementptr inbounds nuw %struct.GetBitContext, ptr %17, i32 0, i32 3
  %19 = load i32, ptr %18, align 4, !tbaa !90
  %20 = load ptr, ptr %6, align 8, !tbaa !88
  call void (ptr, i32, ptr, ...) @av_log(ptr noundef %13, i32 noundef 32, ptr noundef @.str.45, i32 noundef %16, i32 noundef %19, ptr noundef %20)
  br label %21

21:                                               ; preds = %12, %3
  %22 = load i32, ptr %7, align 4, !tbaa !67
  call void @llvm.lifetime.end.p0(i64 4, ptr %7) #10
  ret i32 %22
}