; Function Attrs: inlinehint nounwind uwtable
define internal fastcc range(i32 0, 2) i32 @check_marker(ptr noundef %0, ptr noundef captures(none) %1, ptr noundef %2) unnamed_addr #7 {
  %4 = getelementptr inbounds nuw i8, ptr %1, i64 16
  %5 = load i32, ptr %4, align 8, !tbaa !73
  %6 = load ptr, ptr %1, align 8, !tbaa !74
  %7 = lshr i32 %5, 3
  %8 = zext nneg i32 %7 to i64
  %9 = getelementptr inbounds nuw i8, ptr %6, i64 %8
  %10 = load i8, ptr %9, align 1, !tbaa !72
  %11 = and i32 %5, 7
  %12 = zext i8 %10 to i32
  %13 = shl nuw nsw i32 %12, %11
  %14 = lshr i32 %13, 7
  %15 = add i32 %5, 1
  store i32 %15, ptr %4, align 8, !tbaa !73
  %16 = and i32 %14, 1
  %.not = icmp eq i32 %16, 0
  br i1 %.not, label %17, label %20

17:                                               ; preds = %3
  %18 = getelementptr inbounds nuw i8, ptr %1, i64 20
  %19 = load i32, ptr %18, align 4, !tbaa !80
  tail call void (ptr, i32, ptr, ...) @av_log(ptr noundef %0, i32 noundef 32, ptr noundef nonnull @.str.45, i32 noundef %5, i32 noundef %19, ptr noundef %2) #12
  br label %20

20:                                               ; preds = %17, %3
  ret i32 %16
}